target datalayout = "e-m:e-p270:32:32-p271:32:32-p272:64:64-i64:64-i128:128-f80:128-n8:16:32:64-S128"
target triple = "x86_64-pc-linux-gnu"

%struct.lzma_filter = type { i64, ptr }
%struct.anon = type { i64, i64, i8, i8, i8 }
%struct.lzma_filter_coder = type { i64, ptr, ptr }

; Function Attrs: nounwind uwtable
define dso_local i32 @lzma_validate_chain(ptr noundef %0, ptr noundef %1) #0 {
  %3 = alloca i32, align 4
  %4 = alloca ptr, align 8
  %5 = alloca ptr, align 8
  %6 = alloca i64, align 8
  %7 = alloca i8, align 1
  %8 = alloca i8, align 1
  %9 = alloca i64, align 8
  %10 = alloca i64, align 8
  %11 = alloca i32, align 4
  store ptr %0, ptr %4, align 8, !tbaa !4
  store ptr %1, ptr %5, align 8, !tbaa !24
  %12 = load ptr, ptr %4, align 8, !tbaa !4
  %13 = icmp eq ptr %12, null
  br i1 %13, label %20, label %14

14:                                               ; preds = %2
  %15 = load ptr, ptr %4, align 8, !tbaa !4
  %16 = getelementptr inbounds %struct.lzma_filter, ptr %15, i64 0
  %17 = getelementptr inbounds nuw %struct.lzma_filter, ptr %16, i32 0, i32 0
  %18 = load i64, ptr %17, align 8, !tbaa !10
  %19 = icmp eq i64 %18, -1
  br i1 %19, label %20, label %21

20:                                               ; preds = %14, %2
  store i32 11, ptr %3, align 4
  br label %95

21:                                               ; preds = %14
  call void @llvm.lifetime.start.p0(i64 8, ptr %6) #4
  store i64 0, ptr %6, align 8, !tbaa !8
  call void @llvm.lifetime.start.p0(i64 1, ptr %7) #4
  store i8 1, ptr %7, align 1, !tbaa !26
  call void @llvm.lifetime.start.p0(i64 1, ptr %8) #4
  store i8 0, ptr %8, align 1, !tbaa !26
  call void @llvm.lifetime.start.p0(i64 8, ptr %9) #4
  store i64 0, ptr %9, align 8, !tbaa !8
  br label %22

22:                                               ; preds = %73, %21
  call void @llvm.lifetime.start.p0(i64 8, ptr %10) #4
  store i64 0, ptr %10, align 8, !tbaa !8
  br label %23

23:                                               ; preds = %42, %22
  %24 = load ptr, ptr %4, align 8, !tbaa !4
  %25 = load i64, ptr %9, align 8, !tbaa !8
  %26 = getelementptr inbounds nuw %struct.lzma_filter, ptr %24, i64 %25
  %27 = getelementptr inbounds nuw %struct.lzma_filter, ptr %26, i32 0, i32 0
  %28 = load i64, ptr %27, align 8, !tbaa !10
  %29 = load i64, ptr %10, align 8, !tbaa !8
  %30 = getelementptr inbounds nuw [11 x %struct.anon], ptr @features, i64 0, i64 %29
  %31 = getelementptr inbounds nuw %struct.anon, ptr %30, i32 0, i32 0
  %32 = load i64, ptr %31, align 8, !tbaa !15
  %33 = icmp ne i64 %28, %32
  br i1 %33, label %34, label %45

34:                                               ; preds = %23
  %35 = load i64, ptr %10, align 8, !tbaa !8
  %36 = getelementptr inbounds nuw [11 x %struct.anon], ptr @features, i64 0, i64 %35
  %37 = getelementptr inbounds nuw %struct.anon, ptr %36, i32 0, i32 0
  %38 = load i64, ptr %37, align 8, !tbaa !15
  %39 = icmp eq i64 %38, -1
  br i1 %39, label %40, label %41

40:                                               ; preds = %34
  store i32 8, ptr %3, align 4
  store i32 1, ptr %11, align 4
  br label %70

41:                                               ; preds = %34
  br label %42

42:                                               ; preds = %41
  %43 = load i64, ptr %10, align 8, !tbaa !8
  %44 = add i64 %43, 1
  store i64 %44, ptr %10, align 8, !tbaa !8
  br label %23, !llvm.loop !27

45:                                               ; preds = %23
  %46 = load i8, ptr %7, align 1, !tbaa !26, !range !28, !noundef !29
  %47 = trunc i8 %46 to i1
  br i1 %47, label %49, label %48

48:                                               ; preds = %45
  store i32 8, ptr %3, align 4
  store i32 1, ptr %11, align 4
  br label %70

49:                                               ; preds = %45
  %50 = load i64, ptr %10, align 8, !tbaa !8
  %51 = getelementptr inbounds nuw [11 x %struct.anon], ptr @features, i64 0, i64 %50
  %52 = getelementptr inbounds nuw %struct.anon, ptr %51, i32 0, i32 2
  %53 = load i8, ptr %52, align 8, !tbaa !30, !range !28, !noundef !29
  %54 = trunc i8 %53 to i1
  %55 = zext i1 %54 to i8
  store i8 %55, ptr %7, align 1, !tbaa !26
  %56 = load i64, ptr %10, align 8, !tbaa !8
  %57 = getelementptr inbounds nuw [11 x %struct.anon], ptr @features, i64 0, i64 %56
  %58 = getelementptr inbounds nuw %struct.anon, ptr %57, i32 0, i32 3
  %59 = load i8, ptr %58, align 1, !tbaa !31, !range !28, !noundef !29
  %60 = trunc i8 %59 to i1
  %61 = zext i1 %60 to i8
  store i8 %61, ptr %8, align 1, !tbaa !26
  %62 = load i64, ptr %10, align 8, !tbaa !8
  %63 = getelementptr inbounds nuw [11 x %struct.anon], ptr @features, i64 0, i64 %62
  %64 = getelementptr inbounds nuw %struct.anon, ptr %63, i32 0, i32 4
  %65 = load i8, ptr %64, align 2, !tbaa !32, !range !28, !noundef !29
  %66 = trunc i8 %65 to i1
  %67 = zext i1 %66 to i64
  %68 = load i64, ptr %6, align 8, !tbaa !8
  %69 = add i64 %68, %67
  store i64 %69, ptr %6, align 8, !tbaa !8
  store i32 0, ptr %11, align 4
  br label %70

70:                                               ; preds = %49, %48, %40
  call void @llvm.lifetime.end.p0(i64 8, ptr %10) #4
  %71 = load i32, ptr %11, align 4
  switch i32 %71, label %94 [
    i32 0, label %72
  ]

72:                                               ; preds = %70
  br label %73

73:                                               ; preds = %72
  %74 = load ptr, ptr %4, align 8, !tbaa !4
  %75 = load i64, ptr %9, align 8, !tbaa !8
  %76 = add i64 %75, 1
  store i64 %76, ptr %9, align 8, !tbaa !8
  %77 = getelementptr inbounds nuw %struct.lzma_filter, ptr %74, i64 %76
  %78 = getelementptr inbounds nuw %struct.lzma_filter, ptr %77, i32 0, i32 0
  %79 = load i64, ptr %78, align 8, !tbaa !10
  %80 = icmp ne i64 %79, -1
  br i1 %80, label %22, label %81, !llvm.loop !33

81:                                               ; preds = %73
  %82 = load i64, ptr %9, align 8, !tbaa !8
  %83 = icmp ugt i64 %82, 4
  br i1 %83, label %90, label %84

84:                                               ; preds = %81
  %85 = load i8, ptr %8, align 1, !tbaa !26, !range !28, !noundef !29
  %86 = trunc i8 %85 to i1
  br i1 %86, label %87, label %90

87:                                               ; preds = %84
  %88 = load i64, ptr %6, align 8, !tbaa !8
  %89 = icmp ugt i64 %88, 3
  br i1 %89, label %90, label %91

90:                                               ; preds = %87, %84, %81
  store i32 8, ptr %3, align 4
  store i32 1, ptr %11, align 4
  br label %94

91:                                               ; preds = %87
  %92 = load i64, ptr %9, align 8, !tbaa !8
  %93 = load ptr, ptr %5, align 8, !tbaa !24
  store i64 %92, ptr %93, align 8, !tbaa !8
  store i32 0, ptr %3, align 4
  store i32 1, ptr %11, align 4
  br label %94

94:                                               ; preds = %91, %90, %70
  call void @llvm.lifetime.end.p0(i64 8, ptr %9) #4
  call void @llvm.lifetime.end.p0(i64 1, ptr %8) #4
  call void @llvm.lifetime.end.p0(i64 1, ptr %7) #4
  call void @llvm.lifetime.end.p0(i64 8, ptr %6) #4
  br label %95

95:                                               ; preds = %94, %20
  %96 = load i32, ptr %3, align 4
  ret i32 %96
}

; Function Attrs: nounwind uwtable
define dso_local i64 @lzma_raw_coder_memusage(ptr noundef %0, ptr noundef %1) #0 {
  %3 = alloca i64, align 8
  %4 = alloca ptr, align 8
  %5 = alloca ptr, align 8
  %6 = alloca i64, align 8
  %7 = alloca i32, align 4
  %8 = alloca i64, align 8
  %9 = alloca i64, align 8
  %10 = alloca ptr, align 8
  %11 = alloca i64, align 8
  store ptr %0, ptr %4, align 8, !tbaa !4
  store ptr %1, ptr %5, align 8, !tbaa !4
  call void @llvm.lifetime.start.p0(i64 8, ptr %6) #4
  %12 = load ptr, ptr %5, align 8, !tbaa !4
  %13 = call i32 @lzma_validate_chain(ptr noundef %12, ptr noundef %6)
  %14 = icmp ne i32 %13, 0
  br i1 %14, label %15, label %16

15:                                               ; preds = %2
  store i64 -1, ptr %3, align 8
  store i32 1, ptr %7, align 4
  br label %17

16:                                               ; preds = %2
  store i32 0, ptr %7, align 4
  br label %17

17:                                               ; preds = %16, %15
  call void @llvm.lifetime.end.p0(i64 8, ptr %6) #4
  %18 = load i32, ptr %7, align 4
  switch i32 %18, label %77 [
    i32 0, label %19
    i32 1, label %75
  ]

19:                                               ; preds = %17
  call void @llvm.lifetime.start.p0(i64 8, ptr %8) #4
  store i64 0, ptr %8, align 8, !tbaa !8
  call void @llvm.lifetime.start.p0(i64 8, ptr %9) #4
  store i64 0, ptr %9, align 8, !tbaa !8
  br label %20

20:                                               ; preds = %63, %19
  call void @llvm.lifetime.start.p0(i64 8, ptr %10) #4
  %21 = load ptr, ptr %4, align 8, !tbaa !4
  %22 = load ptr, ptr %5, align 8, !tbaa !4
  %23 = load i64, ptr %9, align 8, !tbaa !8
  %24 = getelementptr inbounds nuw %struct.lzma_filter, ptr %22, i64 %23
  %25 = getelementptr inbounds nuw %struct.lzma_filter, ptr %24, i32 0, i32 0
  %26 = load i64, ptr %25, align 8, !tbaa !10
  %27 = call ptr %21(i64 noundef %26)
  store ptr %27, ptr %10, align 8, !tbaa !4
  %28 = load ptr, ptr %10, align 8, !tbaa !4
  %29 = icmp eq ptr %28, null
  br i1 %29, label %30, label %31

30:                                               ; preds = %20
  store i64 -1, ptr %3, align 8
  store i32 1, ptr %7, align 4
  br label %60

31:                                               ; preds = %20
  %32 = load ptr, ptr %10, align 8, !tbaa !4
  %33 = getelementptr inbounds nuw %struct.lzma_filter_coder, ptr %32, i32 0, i32 2
  %34 = load ptr, ptr %33, align 8, !tbaa !44
  %35 = icmp eq ptr %34, null
  br i1 %35, label %36, label %39

36:                                               ; preds = %31
  %37 = load i64, ptr %8, align 8, !tbaa !8
  %38 = add i64 %37, 1024
  store i64 %38, ptr %8, align 8, !tbaa !8
  br label %59

39:                                               ; preds = %31
  call void @llvm.lifetime.start.p0(i64 8, ptr %11) #4
  %40 = load ptr, ptr %10, align 8, !tbaa !4
  %41 = getelementptr inbounds nuw %struct.lzma_filter_coder, ptr %40, i32 0, i32 2
  %42 = load ptr, ptr %41, align 8, !tbaa !44
  %43 = load ptr, ptr %5, align 8, !tbaa !4
  %44 = load i64, ptr %9, align 8, !tbaa !8
  %45 = getelementptr inbounds nuw %struct.lzma_filter, ptr %43, i64 %44
  %46 = getelementptr inbounds nuw %struct.lzma_filter, ptr %45, i32 0, i32 1
  %47 = load ptr, ptr %46, align 8, !tbaa !14
  %48 = call i64 %42(ptr noundef %47)
  store i64 %48, ptr %11, align 8, !tbaa !8
  %49 = load i64, ptr %11, align 8, !tbaa !8
  %50 = icmp eq i64 %49, -1
  br i1 %50, label %51, label %52

51:                                               ; preds = %39
  store i64 -1, ptr %3, align 8
  store i32 1, ptr %7, align 4
  br label %56

52:                                               ; preds = %39
  %53 = load i64, ptr %11, align 8, !tbaa !8
  %54 = load i64, ptr %8, align 8, !tbaa !8
  %55 = add i64 %54, %53
  store i64 %55, ptr %8, align 8, !tbaa !8
  store i32 0, ptr %7, align 4
  br label %56

56:                                               ; preds = %52, %51
  call void @llvm.lifetime.end.p0(i64 8, ptr %11) #4
  %57 = load i32, ptr %7, align 4
  switch i32 %57, label %60 [
    i32 0, label %58
  ]

58:                                               ; preds = %56
  br label %59

59:                                               ; preds = %58, %36
  store i32 0, ptr %7, align 4
  br label %60

60:                                               ; preds = %59, %56, %30
  call void @llvm.lifetime.end.p0(i64 8, ptr %10) #4
  %61 = load i32, ptr %7, align 4
  switch i32 %61, label %74 [
    i32 0, label %62
  ]

62:                                               ; preds = %60
  br label %63

63:                                               ; preds = %62
  %64 = load ptr, ptr %5, align 8, !tbaa !4
  %65 = load i64, ptr %9, align 8, !tbaa !8
  %66 = add i64 %65, 1
  store i64 %66, ptr %9, align 8, !tbaa !8
  %67 = getelementptr inbounds nuw %struct.lzma_filter, ptr %64, i64 %66
  %68 = getelementptr inbounds nuw %struct.lzma_filter, ptr %67, i32 0, i32 0
  %69 = load i64, ptr %68, align 8, !tbaa !10
  %70 = icmp ne i64 %69, -1
  br i1 %70, label %20, label %71, !llvm.loop !45

71:                                               ; preds = %63
  %72 = load i64, ptr %8, align 8, !tbaa !8
  %73 = add i64 %72, 32768
  store i64 %73, ptr %3, align 8
  store i32 1, ptr %7, align 4
  br label %74

74:                                               ; preds = %71, %60
  call void @llvm.lifetime.end.p0(i64 8, ptr %9) #4
  call void @llvm.lifetime.end.p0(i64 8, ptr %8) #4
  br label %75

75:                                               ; preds = %74, %17
  %76 = load i64, ptr %3, align 8
  ret i64 %76

77:                                               ; preds = %17
  unreachable
}