; Function Attrs: nounwind uwtable
define dso_local i64 @lzma_raw_coder_memusage(ptr noundef readonly captures(none) %0, ptr noundef readonly %1) local_unnamed_addr #0 {
  %3 = icmp eq ptr %1, null
  br i1 %3, label %lzma_validate_chain.exit.thread, label %4

4:                                                ; preds = %2
  %5 = load i64, ptr %1, align 8, !tbaa !4
  %6 = icmp eq i64 %5, -1
  br i1 %6, label %lzma_validate_chain.exit.thread, label %.preheader.i

.preheader.i:                                     ; preds = %4, %13
  %7 = phi i64 [ %22, %13 ], [ %5, %4 ]
  %.026.i = phi i64 [ %19, %13 ], [ 0, %4 ]
  %.024.i = phi i8 [ %15, %13 ], [ 1, %4 ]
  %.022.i = phi i64 [ %20, %13 ], [ 0, %4 ]
  %.not3346.i = icmp eq i64 %7, 4611686018427387905
  br i1 %.not3346.i, label %._crit_edge.i, label %.lr.ph.i

8:                                                ; preds = %.lr.ph.i
  %9 = add nuw nsw i64 %.02147.i, 1
  %10 = getelementptr inbounds nuw [11 x %struct.anon], ptr @features, i64 0, i64 %9
  %11 = load i64, ptr %10, align 8, !tbaa !11
  %.not33.i = icmp eq i64 %7, %11
  br i1 %.not33.i, label %._crit_edge.i, label %.lr.ph.i, !llvm.loop !20

.lr.ph.i:                                         ; preds = %.preheader.i, %8
  %.02147.i = phi i64 [ %9, %8 ], [ 0, %.preheader.i ]
  %exitcond.i = icmp eq i64 %.02147.i, 10
  br i1 %exitcond.i, label %lzma_validate_chain.exit.thread, label %8

._crit_edge.i:                                    ; preds = %8, %.preheader.i
  %.lcssa.i = phi ptr [ @features, %.preheader.i ], [ %10, %8 ]
  %12 = trunc nuw i8 %.024.i to i1
  br i1 %12, label %13, label %lzma_validate_chain.exit.thread

13:                                               ; preds = %._crit_edge.i
  %14 = getelementptr inbounds nuw i8, ptr %.lcssa.i, i64 16
  %15 = load i8, ptr %14, align 8, !tbaa !21, !range !22, !noundef !23
  %16 = getelementptr inbounds nuw i8, ptr %.lcssa.i, i64 18
  %17 = load i8, ptr %16, align 2, !tbaa !24, !range !22, !noundef !23
  %18 = zext nneg i8 %17 to i64
  %19 = add i64 %.026.i, %18
  %20 = add i64 %.022.i, 1
  %21 = getelementptr inbounds nuw %struct.lzma_filter, ptr %1, i64 %20
  %22 = load i64, ptr %21, align 8, !tbaa !4
  %.not34.i = icmp eq i64 %22, -1
  br i1 %.not34.i, label %23, label %.preheader.i, !llvm.loop !25

23:                                               ; preds = %13
  %24 = getelementptr inbounds nuw i8, ptr %.lcssa.i, i64 17
  %25 = load i8, ptr %24, align 1, !tbaa !26, !range !22, !noundef !23
  %26 = icmp ult i64 %20, 5
  %27 = trunc nuw i8 %25 to i1
  %28 = icmp ult i64 %19, 4
  %29 = select i1 %26, i1 %27, i1 false
  %or.cond.i = select i1 %29, i1 %28, i1 false
  br i1 %or.cond.i, label %lzma_validate_chain.exit, label %lzma_validate_chain.exit.thread

lzma_validate_chain.exit:                         ; preds = %23, %43
  %30 = phi i64 [ %46, %43 ], [ %5, %23 ]
  %.024 = phi i64 [ %.12537, %43 ], [ 0, %23 ]
  %.023 = phi i64 [ %44, %43 ], [ 0, %23 ]
  %31 = tail call ptr %0(i64 noundef %30) #5
  %32 = icmp eq ptr %31, null
  br i1 %32, label %lzma_validate_chain.exit.thread, label %33

33:                                               ; preds = %lzma_validate_chain.exit
  %34 = getelementptr inbounds nuw i8, ptr %31, i64 16
  %35 = load ptr, ptr %34, align 8, !tbaa !36
  %36 = icmp eq ptr %35, null
  br i1 %36, label %.thread, label %38

.thread:                                          ; preds = %33
  %37 = add i64 %.024, 1024
  br label %43

38:                                               ; preds = %33
  %39 = getelementptr inbounds nuw %struct.lzma_filter, ptr %1, i64 %.023, i32 1
  %40 = load ptr, ptr %39, align 8, !tbaa !10
  %41 = tail call i64 %35(ptr noundef %40) #5
  %.not30.not = icmp eq i64 %41, -1
  %42 = select i1 %.not30.not, i64 0, i64 %41
  %.327 = add i64 %42, %.024
  br i1 %.not30.not, label %lzma_validate_chain.exit.thread, label %43

43:                                               ; preds = %.thread, %38
  %.12537 = phi i64 [ %37, %.thread ], [ %.327, %38 ]
  %44 = add i64 %.023, 1
  %45 = getelementptr inbounds nuw %struct.lzma_filter, ptr %1, i64 %44
  %46 = load i64, ptr %45, align 8, !tbaa !4
  %.not31 = icmp eq i64 %46, -1
  br i1 %.not31, label %47, label %lzma_validate_chain.exit, !llvm.loop !37

47:                                               ; preds = %43
  %48 = add i64 %.12537, 32768
  br label %lzma_validate_chain.exit.thread

lzma_validate_chain.exit.thread:                  ; preds = %._crit_edge.i, %.lr.ph.i, %lzma_validate_chain.exit, %38, %23, %2, %4, %47
  %.1 = phi i64 [ %48, %47 ], [ -1, %4 ], [ -1, %2 ], [ -1, %23 ], [ -1, %38 ], [ -1, %lzma_validate_chain.exit ], [ -1, %.lr.ph.i ], [ -1, %._crit_edge.i ]
  ret i64 %.1
}